target datalayout = "e-m:e-p270:32:32-p271:32:32-p272:64:64-i64:64-i128:128-f80:128-n8:16:32:64-S128"
target triple = "x86_64-pc-linux-gnu"

%struct.SparseMatrix_struct = type { i32, i32, i32, i32, i32, ptr, ptr, ptr, i32, i8, i64 }

@stderr = external global ptr, align 8
@.str = private unnamed_addr constant [58 x i8] c"integer overflow when trying to allocate %zu * %zu bytes\0A\00", align 1
@.str.1 = private unnamed_addr constant [49 x i8] c"out of memory when trying to allocate %zu bytes\0A\00", align 1

; Function Attrs: inlinehint nounwind uwtable
define internal ptr @gv_calloc(i64 noundef %0, i64 noundef %1) #2 {
  %3 = alloca i64, align 8
  %4 = alloca i64, align 8
  %5 = alloca ptr, align 8
  store i64 %0, ptr %3, align 8, !tbaa !52
  store i64 %1, ptr %4, align 8, !tbaa !52
  %6 = load i64, ptr %3, align 8, !tbaa !52
  %7 = icmp ugt i64 %6, 0
  br i1 %7, label %8, label %18

8:                                                ; preds = %2
  %9 = load i64, ptr %3, align 8, !tbaa !52
  %10 = udiv i64 -1, %9
  %11 = load i64, ptr %4, align 8, !tbaa !52
  %12 = icmp ult i64 %10, %11
  br i1 %12, label %13, label %18

13:                                               ; preds = %8
  %14 = load ptr, ptr @stderr, align 8, !tbaa !85
  %15 = load i64, ptr %3, align 8, !tbaa !52
  %16 = load i64, ptr %4, align 8, !tbaa !52
  %17 = call i32 (ptr, ptr, ...) @fprintf(ptr noundef %14, ptr noundef @.str, i64 noundef %15, i64 noundef %16) #11
  call void @graphviz_exit(i32 noundef 1) #12
  unreachable

18:                                               ; preds = %8, %2
  call void @llvm.lifetime.start.p0(i64 8, ptr %5) #11
  %19 = load i64, ptr %3, align 8, !tbaa !52
  %20 = load i64, ptr %4, align 8, !tbaa !52
  %21 = call noalias ptr @calloc(i64 noundef %19, i64 noundef %20) #13
  store ptr %21, ptr %5, align 8, !tbaa !87
  %22 = load i64, ptr %3, align 8, !tbaa !52
  %23 = icmp ugt i64 %22, 0
  br i1 %23, label %24, label %36

24:                                               ; preds = %18
  %25 = load i64, ptr %4, align 8, !tbaa !52
  %26 = icmp ugt i64 %25, 0
  br i1 %26, label %27, label %36

27:                                               ; preds = %24
  %28 = load ptr, ptr %5, align 8, !tbaa !87
  %29 = icmp eq ptr %28, null
  br i1 %29, label %30, label %36

30:                                               ; preds = %27
  %31 = load ptr, ptr @stderr, align 8, !tbaa !85
  %32 = load i64, ptr %3, align 8, !tbaa !52
  %33 = load i64, ptr %4, align 8, !tbaa !52
  %34 = mul i64 %32, %33
  %35 = call i32 (ptr, ptr, ...) @fprintf(ptr noundef %31, ptr noundef @.str.1, i64 noundef %34) #11
  call void @graphviz_exit(i32 noundef 1) #12
  unreachable

36:                                               ; preds = %27, %24, %18
  %37 = load ptr, ptr %5, align 8, !tbaa !87
  call void @llvm.lifetime.end.p0(i64 8, ptr %5) #11
  ret ptr %37
}

; Function Attrs: inlinehint nounwind uwtable
define internal ptr @gv_alloc(i64 noundef %0) #2 {
  %2 = alloca i64, align 8
  store i64 %0, ptr %2, align 8, !tbaa !52
  %3 = load i64, ptr %2, align 8, !tbaa !52
  %4 = call ptr @gv_calloc(i64 noundef 1, i64 noundef %3)
  ret ptr %4
}

; Function Attrs: nounwind uwtable
define internal ptr @SparseMatrix_init(i32 noundef %0, i32 noundef %1, i32 noundef %2, i64 noundef %3, i32 noundef %4) #0 {
  %6 = alloca i32, align 4
  %7 = alloca i32, align 4
  %8 = alloca i32, align 4
  %9 = alloca i64, align 8
  %10 = alloca i32, align 4
  %11 = alloca ptr, align 8
  store i32 %0, ptr %6, align 4, !tbaa !17
  store i32 %1, ptr %7, align 4, !tbaa !17
  store i32 %2, ptr %8, align 4, !tbaa !17
  store i64 %3, ptr %9, align 8, !tbaa !52
  store i32 %4, ptr %10, align 4, !tbaa !17
  call void @llvm.lifetime.start.p0(i64 8, ptr %11) #11
  %12 = call ptr @gv_alloc(i64 noundef 64)
  store ptr %12, ptr %11, align 8, !tbaa !3
  %13 = load i32, ptr %6, align 4, !tbaa !17
  %14 = load ptr, ptr %11, align 8, !tbaa !3
  %15 = getelementptr inbounds nuw %struct.SparseMatrix_struct, ptr %14, i32 0, i32 0
  store i32 %13, ptr %15, align 8, !tbaa !18
  %16 = load i32, ptr %7, align 4, !tbaa !17
  %17 = load ptr, ptr %11, align 8, !tbaa !3
  %18 = getelementptr inbounds nuw %struct.SparseMatrix_struct, ptr %17, i32 0, i32 1
  store i32 %16, ptr %18, align 4, !tbaa !19
  %19 = load ptr, ptr %11, align 8, !tbaa !3
  %20 = getelementptr inbounds nuw %struct.SparseMatrix_struct, ptr %19, i32 0, i32 2
  store i32 0, ptr %20, align 8, !tbaa !16
  %21 = load ptr, ptr %11, align 8, !tbaa !3
  %22 = getelementptr inbounds nuw %struct.SparseMatrix_struct, ptr %21, i32 0, i32 3
  store i32 0, ptr %22, align 4, !tbaa !88
  %23 = load i32, ptr %8, align 4, !tbaa !17
  %24 = load ptr, ptr %11, align 8, !tbaa !3
  %25 = getelementptr inbounds nuw %struct.SparseMatrix_struct, ptr %24, i32 0, i32 4
  store i32 %23, ptr %25, align 8, !tbaa !20
  %26 = load i64, ptr %9, align 8, !tbaa !52
  %27 = load ptr, ptr %11, align 8, !tbaa !3
  %28 = getelementptr inbounds nuw %struct.SparseMatrix_struct, ptr %27, i32 0, i32 10
  store i64 %26, ptr %28, align 8, !tbaa !71
  %29 = load i32, ptr %10, align 4, !tbaa !17
  switch i32 %29, label %34 [
    i32 1, label %30
    i32 0, label %33
  ]

30:                                               ; preds = %5
  %31 = load ptr, ptr %11, align 8, !tbaa !3
  %32 = getelementptr inbounds nuw %struct.SparseMatrix_struct, ptr %31, i32 0, i32 5
  store ptr null, ptr %32, align 8, !tbaa !8
  br label %41

33:                                               ; preds = %5
  br label %34

34:                                               ; preds = %5, %33
  %35 = load i32, ptr %6, align 4, !tbaa !17
  %36 = add nsw i32 %35, 1
  %37 = sext i32 %36 to i64
  %38 = call ptr @gv_calloc(i64 noundef %37, i64 noundef 4)
  %39 = load ptr, ptr %11, align 8, !tbaa !3
  %40 = getelementptr inbounds nuw %struct.SparseMatrix_struct, ptr %39, i32 0, i32 5
  store ptr %38, ptr %40, align 8, !tbaa !8
  br label %41

41:                                               ; preds = %34, %30
  %42 = load ptr, ptr %11, align 8, !tbaa !3
  %43 = getelementptr inbounds nuw %struct.SparseMatrix_struct, ptr %42, i32 0, i32 6
  store ptr null, ptr %43, align 8, !tbaa !15
  %44 = load ptr, ptr %11, align 8, !tbaa !3
  %45 = getelementptr inbounds nuw %struct.SparseMatrix_struct, ptr %44, i32 0, i32 7
  store ptr null, ptr %45, align 8, !tbaa !27
  %46 = load i32, ptr %10, align 4, !tbaa !17
  %47 = load ptr, ptr %11, align 8, !tbaa !3
  %48 = getelementptr inbounds nuw %struct.SparseMatrix_struct, ptr %47, i32 0, i32 8
  store i32 %46, ptr %48, align 8, !tbaa !21
  %49 = load ptr, ptr %11, align 8, !tbaa !3
  call void @llvm.lifetime.end.p0(i64 8, ptr %11) #11
  ret ptr %49
}