; Function Attrs: nofree nounwind uwtable
define internal fastcc noalias noundef ptr @SparseMatrix_init(i32 noundef %0, i32 noundef %1, i32 noundef %2, i64 noundef %3, i32 noundef %4) unnamed_addr #4 {
  %6 = tail call noalias dereferenceable_or_null(64) ptr @calloc(i64 noundef 1, i64 noundef 64) #20
  %7 = icmp eq ptr %6, null
  br i1 %7, label %8, label %gv_alloc.exit

8:                                                ; preds = %5
  %9 = load ptr, ptr @stderr, align 8, !tbaa !43
  %10 = tail call i32 (ptr, ptr, ...) @fprintf(ptr noundef %9, ptr noundef nonnull @.str.1, i64 noundef 64) #18
  tail call fastcc void @graphviz_exit() #19
  unreachable

gv_alloc.exit:                                    ; preds = %5
  store i32 %0, ptr %6, align 8, !tbaa !15
  %11 = getelementptr inbounds nuw i8, ptr %6, i64 4
  store i32 %1, ptr %11, align 4, !tbaa !16
  %12 = getelementptr inbounds nuw i8, ptr %6, i64 16
  store i32 %2, ptr %12, align 8, !tbaa !17
  %13 = getelementptr inbounds nuw i8, ptr %6, i64 56
  store i64 %3, ptr %13, align 8, !tbaa !62
  %cond = icmp eq i32 %4, 1
  br i1 %cond, label %31, label %14

14:                                               ; preds = %gv_alloc.exit
  %15 = add nsw i32 %0, 1
  %16 = sext i32 %15 to i64
  %.not = icmp eq i32 %15, 0
  br i1 %.not, label %.thread, label %18

.thread:                                          ; preds = %14
  %17 = tail call noalias ptr @calloc(i64 noundef range(i64 -4294967296, 4294967295) %16, i64 noundef 4) #20
  br label %gv_calloc.exit

18:                                               ; preds = %14
  %mul.ov.i = icmp slt i32 %0, -1
  br i1 %mul.ov.i, label %19, label %22

19:                                               ; preds = %18
  %20 = load ptr, ptr @stderr, align 8, !tbaa !43
  %21 = tail call i32 (ptr, ptr, ...) @fprintf(ptr noundef %20, ptr noundef nonnull @.str, i64 noundef range(i64 -4294967296, 4294967295) %16, i64 noundef 4) #18
  tail call fastcc void @graphviz_exit() #19
  unreachable

22:                                               ; preds = %18
  %23 = tail call noalias ptr @calloc(i64 noundef range(i64 -4294967296, 4294967295) %16, i64 noundef 4) #20
  %24 = icmp eq ptr %23, null
  br i1 %24, label %25, label %gv_calloc.exit

25:                                               ; preds = %22
  %26 = load ptr, ptr @stderr, align 8, !tbaa !43
  %27 = shl nuw nsw i64 %16, 2
  %28 = tail call i32 (ptr, ptr, ...) @fprintf(ptr noundef %26, ptr noundef nonnull @.str.1, i64 noundef %27) #18
  tail call fastcc void @graphviz_exit() #19
  unreachable

gv_calloc.exit:                                   ; preds = %.thread, %22
  %29 = phi ptr [ %17, %.thread ], [ %23, %22 ]
  %30 = getelementptr inbounds nuw i8, ptr %6, i64 24
  store ptr %29, ptr %30, align 8, !tbaa !3
  br label %31

31:                                               ; preds = %gv_alloc.exit, %gv_calloc.exit
  %32 = getelementptr inbounds nuw i8, ptr %6, i64 48
  store i32 %4, ptr %32, align 8, !tbaa !18
  ret ptr %6
}